target datalayout = "e-m:e-p270:32:32-p271:32:32-p272:64:64-i64:64-i128:128-f80:128-n8:16:32:64-S128"
target triple = "x86_64-pc-linux-gnu"

%struct.b2HashSet = type { ptr, i32, i32 }
%struct.b2IntArray = type { ptr, i32, i32 }
%struct.b2DynamicTree = type { ptr, i32, i32, i32, i32, i32, ptr, ptr, ptr, ptr, i32 }
%struct.b2BroadPhase = type { [3 x %struct.b2DynamicTree], i32, %struct.b2HashSet, %struct.b2IntArray, ptr, ptr, i32, %struct.b2AtomicInt, %struct.b2HashSet }
%struct.b2AtomicInt = type { i32 }
%struct.b2AABB = type { %struct.b2Vec2, %struct.b2Vec2 }
%struct.b2Vec2 = type { float, float }

; Function Attrs: inlinehint nounwind uwtable
define internal zeroext i1 @b2AABB_Overlaps(<2 x float> %0, <2 x float> %1, <2 x float> %2, <2 x float> %3) #7 {
  %5 = alloca %struct.b2AABB, align 4
  %6 = alloca %struct.b2AABB, align 4
  %7 = getelementptr inbounds nuw { <2 x float>, <2 x float> }, ptr %5, i32 0, i32 0
  store <2 x float> %0, ptr %7, align 4
  %8 = getelementptr inbounds nuw { <2 x float>, <2 x float> }, ptr %5, i32 0, i32 1
  store <2 x float> %1, ptr %8, align 4
  %9 = getelementptr inbounds nuw { <2 x float>, <2 x float> }, ptr %6, i32 0, i32 0
  store <2 x float> %2, ptr %9, align 4
  %10 = getelementptr inbounds nuw { <2 x float>, <2 x float> }, ptr %6, i32 0, i32 1
  store <2 x float> %3, ptr %10, align 4
  %11 = getelementptr inbounds nuw %struct.b2AABB, ptr %6, i32 0, i32 0
  %12 = getelementptr inbounds nuw %struct.b2Vec2, ptr %11, i32 0, i32 0
  %13 = load float, ptr %12, align 4, !tbaa !123
  %14 = getelementptr inbounds nuw %struct.b2AABB, ptr %5, i32 0, i32 1
  %15 = getelementptr inbounds nuw %struct.b2Vec2, ptr %14, i32 0, i32 0
  %16 = load float, ptr %15, align 4, !tbaa !125
  %17 = fcmp ogt float %13, %16
  br i1 %17, label %42, label %18

18:                                               ; preds = %4
  %19 = getelementptr inbounds nuw %struct.b2AABB, ptr %6, i32 0, i32 0
  %20 = getelementptr inbounds nuw %struct.b2Vec2, ptr %19, i32 0, i32 1
  %21 = load float, ptr %20, align 4, !tbaa !126
  %22 = getelementptr inbounds nuw %struct.b2AABB, ptr %5, i32 0, i32 1
  %23 = getelementptr inbounds nuw %struct.b2Vec2, ptr %22, i32 0, i32 1
  %24 = load float, ptr %23, align 4, !tbaa !127
  %25 = fcmp ogt float %21, %24
  br i1 %25, label %42, label %26

26:                                               ; preds = %18
  %27 = getelementptr inbounds nuw %struct.b2AABB, ptr %5, i32 0, i32 0
  %28 = getelementptr inbounds nuw %struct.b2Vec2, ptr %27, i32 0, i32 0
  %29 = load float, ptr %28, align 4, !tbaa !123
  %30 = getelementptr inbounds nuw %struct.b2AABB, ptr %6, i32 0, i32 1
  %31 = getelementptr inbounds nuw %struct.b2Vec2, ptr %30, i32 0, i32 0
  %32 = load float, ptr %31, align 4, !tbaa !125
  %33 = fcmp ogt float %29, %32
  br i1 %33, label %42, label %34

34:                                               ; preds = %26
  %35 = getelementptr inbounds nuw %struct.b2AABB, ptr %5, i32 0, i32 0
  %36 = getelementptr inbounds nuw %struct.b2Vec2, ptr %35, i32 0, i32 1
  %37 = load float, ptr %36, align 4, !tbaa !126
  %38 = getelementptr inbounds nuw %struct.b2AABB, ptr %6, i32 0, i32 1
  %39 = getelementptr inbounds nuw %struct.b2Vec2, ptr %38, i32 0, i32 1
  %40 = load float, ptr %39, align 4, !tbaa !127
  %41 = fcmp ogt float %37, %40
  br label %42

42:                                               ; preds = %34, %26, %18, %4
  %43 = phi i1 [ true, %26 ], [ true, %18 ], [ true, %4 ], [ %41, %34 ]
  %44 = xor i1 %43, true
  ret i1 %44
}

; Function Attrs: nounwind uwtable
define hidden zeroext i1 @b2BroadPhase_TestOverlap(ptr noundef %0, i32 noundef %1, i32 noundef %2) #6 {
  %4 = alloca ptr, align 8
  %5 = alloca i32, align 4
  %6 = alloca i32, align 4
  %7 = alloca i32, align 4
  %8 = alloca i32, align 4
  %9 = alloca i32, align 4
  %10 = alloca i32, align 4
  %11 = alloca %struct.b2AABB, align 4
  %12 = alloca %struct.b2AABB, align 4
  store ptr %0, ptr %4, align 8, !tbaa !3
  store i32 %1, ptr %5, align 4, !tbaa !20
  store i32 %2, ptr %6, align 4, !tbaa !20
  call void @llvm.lifetime.start.p0(i64 4, ptr %7) #8
  %13 = load i32, ptr %5, align 4, !tbaa !20
  %14 = and i32 %13, 3
  store i32 %14, ptr %7, align 4, !tbaa !20
  call void @llvm.lifetime.start.p0(i64 4, ptr %8) #8
  %15 = load i32, ptr %5, align 4, !tbaa !20
  %16 = ashr i32 %15, 2
  store i32 %16, ptr %8, align 4, !tbaa !20
  call void @llvm.lifetime.start.p0(i64 4, ptr %9) #8
  %17 = load i32, ptr %6, align 4, !tbaa !20
  %18 = and i32 %17, 3
  store i32 %18, ptr %9, align 4, !tbaa !20
  call void @llvm.lifetime.start.p0(i64 4, ptr %10) #8
  %19 = load i32, ptr %6, align 4, !tbaa !20
  %20 = ashr i32 %19, 2
  store i32 %20, ptr %10, align 4, !tbaa !20
  call void @llvm.lifetime.start.p0(i64 16, ptr %11) #8
  %21 = load ptr, ptr %4, align 8, !tbaa !3
  %22 = getelementptr inbounds nuw %struct.b2BroadPhase, ptr %21, i32 0, i32 0
  %23 = getelementptr inbounds [3 x %struct.b2DynamicTree], ptr %22, i64 0, i64 0
  %24 = load i32, ptr %7, align 4, !tbaa !20
  %25 = sext i32 %24 to i64
  %26 = getelementptr inbounds %struct.b2DynamicTree, ptr %23, i64 %25
  %27 = load i32, ptr %8, align 4, !tbaa !20
  %28 = call { <2 x float>, <2 x float> } @b2DynamicTree_GetAABB(ptr noundef %26, i32 noundef %27)
  %29 = getelementptr inbounds nuw { <2 x float>, <2 x float> }, ptr %11, i32 0, i32 0
  %30 = extractvalue { <2 x float>, <2 x float> } %28, 0
  store <2 x float> %30, ptr %29, align 4
  %31 = getelementptr inbounds nuw { <2 x float>, <2 x float> }, ptr %11, i32 0, i32 1
  %32 = extractvalue { <2 x float>, <2 x float> } %28, 1
  store <2 x float> %32, ptr %31, align 4
  call void @llvm.lifetime.start.p0(i64 16, ptr %12) #8
  %33 = load ptr, ptr %4, align 8, !tbaa !3
  %34 = getelementptr inbounds nuw %struct.b2BroadPhase, ptr %33, i32 0, i32 0
  %35 = getelementptr inbounds [3 x %struct.b2DynamicTree], ptr %34, i64 0, i64 0
  %36 = load i32, ptr %9, align 4, !tbaa !20
  %37 = sext i32 %36 to i64
  %38 = getelementptr inbounds %struct.b2DynamicTree, ptr %35, i64 %37
  %39 = load i32, ptr %10, align 4, !tbaa !20
  %40 = call { <2 x float>, <2 x float> } @b2DynamicTree_GetAABB(ptr noundef %38, i32 noundef %39)
  %41 = getelementptr inbounds nuw { <2 x float>, <2 x float> }, ptr %12, i32 0, i32 0
  %42 = extractvalue { <2 x float>, <2 x float> } %40, 0
  store <2 x float> %42, ptr %41, align 4
  %43 = getelementptr inbounds nuw { <2 x float>, <2 x float> }, ptr %12, i32 0, i32 1
  %44 = extractvalue { <2 x float>, <2 x float> } %40, 1
  store <2 x float> %44, ptr %43, align 4
  %45 = getelementptr inbounds nuw { <2 x float>, <2 x float> }, ptr %11, i32 0, i32 0
  %46 = load <2 x float>, ptr %45, align 4
  %47 = getelementptr inbounds nuw { <2 x float>, <2 x float> }, ptr %11, i32 0, i32 1
  %48 = load <2 x float>, ptr %47, align 4
  %49 = getelementptr inbounds nuw { <2 x float>, <2 x float> }, ptr %12, i32 0, i32 0
  %50 = load <2 x float>, ptr %49, align 4
  %51 = getelementptr inbounds nuw { <2 x float>, <2 x float> }, ptr %12, i32 0, i32 1
  %52 = load <2 x float>, ptr %51, align 4
  %53 = call zeroext i1 @b2AABB_Overlaps(<2 x float> %46, <2 x float> %48, <2 x float> %50, <2 x float> %52)
  call void @llvm.lifetime.end.p0(i64 16, ptr %12) #8
  call void @llvm.lifetime.end.p0(i64 16, ptr %11) #8
  call void @llvm.lifetime.end.p0(i64 4, ptr %10) #8
  call void @llvm.lifetime.end.p0(i64 4, ptr %9) #8
  call void @llvm.lifetime.end.p0(i64 4, ptr %8) #8
  call void @llvm.lifetime.end.p0(i64 4, ptr %7) #8
  ret i1 %53
}