; Function Attrs: nounwind uwtable
define hidden zeroext i1 @b2BroadPhase_TestOverlap(ptr noundef %0, i32 noundef %1, i32 noundef %2) local_unnamed_addr #5 {
  %4 = and i32 %1, 3
  %5 = ashr i32 %1, 2
  %6 = and i32 %2, 3
  %7 = ashr i32 %2, 2
  %8 = zext nneg i32 %4 to i64
  %9 = getelementptr inbounds nuw %struct.b2DynamicTree, ptr %0, i64 %8
  %10 = tail call { <2 x float>, <2 x float> } @b2DynamicTree_GetAABB(ptr noundef %9, i32 noundef %5) #8
  %11 = extractvalue { <2 x float>, <2 x float> } %10, 0
  %12 = extractvalue { <2 x float>, <2 x float> } %10, 1
  %13 = zext nneg i32 %6 to i64
  %14 = getelementptr inbounds nuw %struct.b2DynamicTree, ptr %0, i64 %13
  %15 = tail call { <2 x float>, <2 x float> } @b2DynamicTree_GetAABB(ptr noundef %14, i32 noundef %7) #8
  %16 = extractvalue { <2 x float>, <2 x float> } %15, 0
  %17 = extractvalue { <2 x float>, <2 x float> } %15, 1
  %.sroa.0.0.vec.extract.i = extractelement <2 x float> %16, i64 0
  %.sroa.32.8.vec.extract.i = extractelement <2 x float> %12, i64 0
  %18 = fcmp ogt float %.sroa.0.0.vec.extract.i, %.sroa.32.8.vec.extract.i
  %19 = fcmp ogt <2 x float> %16, %12
  %20 = extractelement <2 x i1> %19, i64 1
  %or.cond.i = select i1 %18, i1 true, i1 %20
  %.sroa.01.0.vec.extract.i = extractelement <2 x float> %11, i64 0
  %.sroa.3.8.vec.extract.i = extractelement <2 x float> %17, i64 0
  %21 = fcmp ogt float %.sroa.01.0.vec.extract.i, %.sroa.3.8.vec.extract.i
  %or.cond3.i = select i1 %or.cond.i, i1 true, i1 %21
  br i1 %or.cond3.i, label %b2AABB_Overlaps.exit, label %22

22:                                               ; preds = %3
  %23 = fcmp ule <2 x float> %11, %17
  %24 = extractelement <2 x i1> %23, i64 1
  br label %b2AABB_Overlaps.exit

b2AABB_Overlaps.exit:                             ; preds = %3, %22
  %25 = phi i1 [ false, %3 ], [ %24, %22 ]
  ret i1 %25
}